Certificate:
    Data:
        Version: 3 (0x2)
        Serial Number:
            1f:47:72:c0:67:d2:dd:f7:b1:42:17:fd:1a:3b:4e:63
        Signature Algorithm: sha256WithRSAEncryption
        Issuer: C=BR, ST=SAO PAULO, O=Dock Tech, OU=Architecture, CN=Roles Anywhere Trust CA
        Validity
            Not Before: Sep 23 23:15:22 2025 GMT
            Not After : Sep 21 23:15:22 2035 GMT
        Subject: C=BR, ST=SAO PAULO, O=Dock Tech, OU=Client-01, CN=Roles Anywhere Trust CA
        Subject Public Key Info:
            Public Key Algorithm: rsaEncryption
                Public-Key: (4096 bit)
                Modulus:
                    00:e9:58:67:b9:29:cc:9a:4b:2e:ef:09:a3:f1:3b:
                    5f:8c:e3:2c:ad:b8:70:42:9b:43:0a:80:f4:6d:c7:
                    ad:71:0f:50:11:06:96:ba:24:14:fa:da:d8:2f:52:
                    dd:b3:3f:ac:dc:0a:eb:b3:25:a7:87:08:c0:9c:e0:
                    e6:98:42:8c:a5:5e:9c:74:3c:86:1b:3f:01:af:e6:
                    17:ec:51:f9:5a:17:6d:04:55:8e:47:8a:79:05:e3:
                    01:b7:09:94:e2:67:4e:36:3b:89:63:5e:b2:98:d9:
                    5c:65:35:7d:e2:3f:3a:b3:c4:29:2b:01:a9:1a:5a:
                    7a:92:b9:53:da:90:91:6c:6a:6d:55:9e:8a:76:5c:
                    ce:4f:8d:28:26:14:25:12:90:d0:f3:69:13:4e:92:
                    df:6f:fd:06:49:f9:a8:c3:1d:f2:44:80:a5:bf:fa:
                    46:40:2f:e5:50:fa:55:89:11:a0:ec:f2:29:6b:b2:
                    e3:84:37:3b:41:fa:e5:14:15:ff:1a:25:59:62:f1:
                    64:e5:86:7e:96:2a:e0:73:3c:c9:ae:94:f2:fc:17:
                    16:58:dc:32:6b:12:bb:71:75:c8:ef:3a:23:20:65:
                    bf:d3:a5:02:db:78:fe:2a:a0:8c:0b:8f:87:7d:72:
                    10:da:8f:86:5f:40:2e:b5:62:8c:f6:19:2c:55:53:
                    1a:98:bd:e2:7f:80:12:47:61:3f:46:f6:e2:4d:d7:
                    02:f6:9f:77:16:a4:81:e8:b6:81:90:00:57:7f:94:
                    19:fb:33:a2:54:53:91:61:d2:6f:0f:bd:b4:6d:ac:
                    f6:3d:96:34:cf:53:71:73:60:ef:87:ea:39:8f:7d:
                    eb:bf:a1:90:be:83:6f:44:cd:46:37:e5:5f:70:6d:
                    9f:0a:59:32:46:b2:fb:45:cf:67:35:9c:ce:64:fb:
                    ac:7f:cc:99:39:05:bd:bf:71:2e:d2:00:2e:59:42:
                    b6:8b:c8:98:c5:e1:49:de:d4:05:10:f6:ce:f6:a1:
                    20:c7:e7:67:b0:58:21:d0:6f:53:07:3f:a8:6d:a2:
                    d6:d7:7d:96:df:c0:ba:f4:d1:90:b5:69:cb:83:b5:
                    f7:7c:4b:9a:df:4c:d4:f8:00:59:c6:67:c4:1a:f9:
                    a0:9e:0d:82:e3:ef:d6:84:3a:48:f3:5b:9c:ba:fe:
                    cf:27:24:5e:11:0a:b7:55:a6:1e:91:f7:a6:44:f4:
                    51:50:38:39:dc:76:f1:7e:b7:e3:f7:44:e0:3a:ee:
                    ad:83:92:85:97:13:aa:20:3a:d5:8c:53:49:2a:4e:
                    27:46:08:29:52:16:e0:a6:57:c8:35:10:8f:e0:0e:
                    7e:62:96:78:0d:0e:33:67:36:62:ab:8a:91:7b:8c:
                    67:61:3b
                Exponent: 65537 (0x10001)
        X509v3 extensions:
            X509v3 Basic Constraints: 
                CA:FALSE
            X509v3 Key Usage: 
                Digital Signature, Non Repudiation, Key Encipherment, Data Encipherment
            X509v3 Authority Key Identifier: 
                09:79:1C:DF:EB:FC:5E:3A:ED:C9:04:F6:6C:ED:27:D7:37:DE:BD:7D
            X509v3 Extended Key Usage: 
                TLS Web Client Authentication
            X509v3 Subject Key Identifier: 
                13:6B:4B:FA:B3:A9:54:1E:28:4A:EA:E4:D0:2C:C4:E9:F2:90:F6:39
    Signature Algorithm: sha256WithRSAEncryption
    Signature Value:
        9b:1d:79:2f:cd:c0:0a:dd:1f:78:b0:28:e9:5a:b8:ce:a1:23:
        e1:49:45:34:e0:30:e3:f7:c3:02:4d:2c:11:6c:5e:40:35:f3:
        b5:3d:da:77:7e:21:d7:8c:11:8b:5c:0e:d3:ca:0d:2c:63:8f:
        c2:46:ed:6c:c7:a0:15:7c:2b:48:f7:74:ca:03:a0:80:e2:7a:
        9f:50:55:1a:04:f1:24:d7:b0:bd:c5:ae:82:fb:4e:71:42:50:
        a0:db:7b:6b:c6:ee:90:17:9b:c4:ce:9b:a7:79:00:fb:33:d3:
        85:d3:85:79:22:1e:b4:f5:4d:41:44:41:7d:e9:bc:fc:d9:86:
        55:2a:22:3d:3e:6a:a5:45:19:70:a9:1b:af:1d:89:ee:fb:55:
        75:57:bd:01:22:df:c3:e2:51:c4:c3:1c:eb:a5:83:05:84:2c:
        72:0c:ab:65:50:15:f4:a2:b2:27:3c:e8:c1:23:12:d5:c9:6a:
        3b:8d:c0:3c:ae:dd:f4:0f:34:1a:55:7a:5a:91:f1:ae:f7:82:
        6d:47:17:bd:3d:5b:e3:df:1c:d2:d9:c0:5b:41:0c:71:f2:dd:
        19:bb:05:dd:5d:f9:1d:60:2a:70:ee:ce:b4:aa:a6:15:75:e8:
        2e:56:8a:11:97:c4:58:ee:e4:60:9a:ce:ab:ce:52:de:46:10:
        31:47:28:29:9e:36:20:15:85:da:d1:6f:aa:ae:21:1e:86:e7:
        f0:f6:f1:1f:98:aa:99:4f:9c:91:7f:f0:f4:57:9d:f6:20:aa:
        4f:2b:74:d5:15:f1:ac:75:83:80:6b:2d:aa:1e:e3:cd:03:8f:
        98:c4:57:88:a2:89:bd:2e:02:8a:17:64:ad:62:22:01:9a:c0:
        5e:a8:e8:37:6c:93:af:b9:26:b6:d4:b5:f5:5d:ee:45:c4:07:
        77:c3:41:08:27:27:6f:a1:cb:85:89:1e:e1:d7:ba:63:73:31:
        18:e9:35:16:97:b4:d4:8f:e1:18:a0:04:47:71:5c:23:49:34:
        36:3a:3c:ab:75:8e:16:1c:b4:d3:77:ad:c5:c0:16:ee:3c:1b:
        c3:1f:77:4e:3c:18:c1:9f:3e:74:e6:a9:7c:f1:ca:64:14:82:
        25:ce:15:ee:1c:7c:c4:4d:34:27:7c:0f:9f:25:9b:56:ac:c7:
        c5:a7:7c:86:e3:7a:ac:d2:77:c3:c5:93:25:b0:53:8f:fc:7c:
        10:86:41:92:df:c1:00:e3:91:a9:a5:14:c4:5c:5a:e0:14:78:
        24:5a:ce:37:80:b0:51:f5:78:d6:0c:09:3f:68:7e:58:6e:c5:
        6f:09:6a:4c:80:4e:1c:09:44:90:c2:d6:ae:b5:5c:bf:52:98:
        46:25:28:2a:9e:b6:65:ec
-----BEGIN CERTIFICATE-----
MIIF0jCCA7qgAwIBAgIQH0dywGfS3fexQhf9GjtOYzANBgkqhkiG9w0BAQsFADBu
MQswCQYDVQQGEwJCUjESMBAGA1UECAwJU0FPIFBBVUxPMRIwEAYDVQQKDAlEb2Nr
IFRlY2gxFTATBgNVBAsMDEFyY2hpdGVjdHVyZTEgMB4GA1UEAwwXUm9sZXMgQW55
d2hlcmUgVHJ1c3QgQ0EwHhcNMjUwOTIzMjMxNTIyWhcNMzUwOTIxMjMxNTIyWjBr
MQswCQYDVQQGEwJCUjESMBAGA1UECAwJU0FPIFBBVUxPMRIwEAYDVQQKDAlEb2Nr
IFRlY2gxEjAQBgNVBAsMCUNsaWVudC0wMTEgMB4GA1UEAwwXUm9sZXMgQW55d2hl
cmUgVHJ1c3QgQ0EwggIiMA0GCSqGSIb3DQEBAQUAA4ICDwAwggIKAoICAQDpWGe5
KcyaSy7vCaPxO1+M4yytuHBCm0MKgPRtx61xD1ARBpa6JBT62tgvUt2zP6zcCuuz
JaeHCMCc4OaYQoylXpx0PIYbPwGv5hfsUflaF20EVY5HinkF4wG3CZTiZ042O4lj
XrKY2VxlNX3iPzqzxCkrAakaWnqSuVPakJFsam1Vnop2XM5PjSgmFCUSkNDzaRNO
kt9v/QZJ+ajDHfJEgKW/+kZAL+VQ+lWJEaDs8ilrsuOENztB+uUUFf8aJVli8WTl
hn6WKuBzPMmulPL8FxZY3DJrErtxdcjvOiMgZb/TpQLbeP4qoIwLj4d9chDaj4Zf
QC61Yoz2GSxVUxqYveJ/gBJHYT9G9uJN1wL2n3cWpIHotoGQAFd/lBn7M6JUU5Fh
0m8PvbRtrPY9ljTPU3FzYO+H6jmPfeu/oZC+g29EzUY35V9wbZ8KWTJGsvtFz2c1
nM5k+6x/zJk5Bb2/cS7SAC5ZQraLyJjF4Une1AUQ9s72oSDH52ewWCHQb1MHP6ht
otbXfZbfwLr00ZC1acuDtfd8S5rfTNT4AFnGZ8Qa+aCeDYLj79aEOkjzW5y6/s8n
JF4RCrdVph6R96ZE9FFQODncdvF+t+P3ROA67q2DkoWXE6ogOtWMU0kqTidGCClS
FuCmV8g1EI/gDn5ilngNDjNnNmKripF7jGdhOwIDAQABo28wbTAJBgNVHRMEAjAA
MAsGA1UdDwQEAwIE8DAfBgNVHSMEGDAWgBQJeRzf6/xeOu3JBPZs7SfXN969fTAT
BgNVHSUEDDAKBggrBgEFBQcDAjAdBgNVHQ4EFgQUE2tL+rOpVB4oSurk0CzE6fKQ
9jkwDQYJKoZIhvcNAQELBQADggIBAJsdeS/NwArdH3iwKOlauM6hI+FJRTTgMOP3
wwJNLBFsXkA187U92nd+IdeMEYtcDtPKDSxjj8JG7WzHoBV8K0j3dMoDoIDiep9Q
VRoE8STXsL3FroL7TnFCUKDbe2vG7pAXm8TOm6d5APsz04XThXkiHrT1TUFEQX3p
vPzZhlUqIj0+aqVFGXCpG68die77VXVXvQEi38PiUcTDHOulgwWELHIMq2VQFfSi
sic86MEjEtXJajuNwDyu3fQPNBpVelqR8a73gm1HF709W+PfHNLZwFtBDHHy3Rm7
Bd1d+R1gKnDuzrSqphV16C5WihGXxFju5GCazqvOUt5GEDFHKCmeNiAVhdrRb6qu
IR6G5/D28R+YqplPnJF/8PRXnfYgqk8rdNUV8ax1g4BrLaoe480Dj5jEV4iiib0u
AooXZK1iIgGawF6o6Ddsk6+5JrbUtfVd7kXEB3fDQQgnJ2+hy4WJHuHXumNzMRjp
NRaXtNSP4RigBEdxXCNJNDY6PKt1jhYctNN3rcXAFu48G8Mfd048GMGfPnTmqXzx
ymQUgiXOFe4cfMRNNCd8D58lm1asx8WnfIbjeqzSd8PFkyWwU4/8fBCGQZLfwQDj
kamlFMRcWuAUeCRazjeAsFH1eNYMCT9oflhuxW8JakyAThwJRJDC1q61XL9SmEYl
KCqetmXs
-----END CERTIFICATE-----
