Certificate:
    Data:
        Version: 3 (0x2)
        Serial Number:
            1f:47:72:c0:67:d2:dd:f7:b1:42:17:fd:1a:3b:4e:64
        Signature Algorithm: sha256WithRSAEncryption
        Issuer: C=BR, ST=SAO PAULO, O=Dock Tech, OU=Architecture, CN=Roles Anywhere Trust CA
        Validity
            Not Before: Sep 23 23:55:25 2025 GMT
            Not After : Sep 21 23:55:25 2035 GMT
        Subject: C=BR, ST=SAO PAULO, O=Dock Tech, OU=Client-01, CN=on-premisse-local-machine
        Subject Public Key Info:
            Public Key Algorithm: rsaEncryption
                Public-Key: (4096 bit)
                Modulus:
                    00:e9:58:67:b9:29:cc:9a:4b:2e:ef:09:a3:f1:3b:
                    5f:8c:e3:2c:ad:b8:70:42:9b:43:0a:80:f4:6d:c7:
                    ad:71:0f:50:11:06:96:ba:24:14:fa:da:d8:2f:52:
                    dd:b3:3f:ac:dc:0a:eb:b3:25:a7:87:08:c0:9c:e0:
                    e6:98:42:8c:a5:5e:9c:74:3c:86:1b:3f:01:af:e6:
                    17:ec:51:f9:5a:17:6d:04:55:8e:47:8a:79:05:e3:
                    01:b7:09:94:e2:67:4e:36:3b:89:63:5e:b2:98:d9:
                    5c:65:35:7d:e2:3f:3a:b3:c4:29:2b:01:a9:1a:5a:
                    7a:92:b9:53:da:90:91:6c:6a:6d:55:9e:8a:76:5c:
                    ce:4f:8d:28:26:14:25:12:90:d0:f3:69:13:4e:92:
                    df:6f:fd:06:49:f9:a8:c3:1d:f2:44:80:a5:bf:fa:
                    46:40:2f:e5:50:fa:55:89:11:a0:ec:f2:29:6b:b2:
                    e3:84:37:3b:41:fa:e5:14:15:ff:1a:25:59:62:f1:
                    64:e5:86:7e:96:2a:e0:73:3c:c9:ae:94:f2:fc:17:
                    16:58:dc:32:6b:12:bb:71:75:c8:ef:3a:23:20:65:
                    bf:d3:a5:02:db:78:fe:2a:a0:8c:0b:8f:87:7d:72:
                    10:da:8f:86:5f:40:2e:b5:62:8c:f6:19:2c:55:53:
                    1a:98:bd:e2:7f:80:12:47:61:3f:46:f6:e2:4d:d7:
                    02:f6:9f:77:16:a4:81:e8:b6:81:90:00:57:7f:94:
                    19:fb:33:a2:54:53:91:61:d2:6f:0f:bd:b4:6d:ac:
                    f6:3d:96:34:cf:53:71:73:60:ef:87:ea:39:8f:7d:
                    eb:bf:a1:90:be:83:6f:44:cd:46:37:e5:5f:70:6d:
                    9f:0a:59:32:46:b2:fb:45:cf:67:35:9c:ce:64:fb:
                    ac:7f:cc:99:39:05:bd:bf:71:2e:d2:00:2e:59:42:
                    b6:8b:c8:98:c5:e1:49:de:d4:05:10:f6:ce:f6:a1:
                    20:c7:e7:67:b0:58:21:d0:6f:53:07:3f:a8:6d:a2:
                    d6:d7:7d:96:df:c0:ba:f4:d1:90:b5:69:cb:83:b5:
                    f7:7c:4b:9a:df:4c:d4:f8:00:59:c6:67:c4:1a:f9:
                    a0:9e:0d:82:e3:ef:d6:84:3a:48:f3:5b:9c:ba:fe:
                    cf:27:24:5e:11:0a:b7:55:a6:1e:91:f7:a6:44:f4:
                    51:50:38:39:dc:76:f1:7e:b7:e3:f7:44:e0:3a:ee:
                    ad:83:92:85:97:13:aa:20:3a:d5:8c:53:49:2a:4e:
                    27:46:08:29:52:16:e0:a6:57:c8:35:10:8f:e0:0e:
                    7e:62:96:78:0d:0e:33:67:36:62:ab:8a:91:7b:8c:
                    67:61:3b
                Exponent: 65537 (0x10001)
        X509v3 extensions:
            X509v3 Basic Constraints: 
                CA:FALSE
            X509v3 Key Usage: 
                Digital Signature, Non Repudiation, Key Encipherment, Data Encipherment
            X509v3 Authority Key Identifier: 
                09:79:1C:DF:EB:FC:5E:3A:ED:C9:04:F6:6C:ED:27:D7:37:DE:BD:7D
            X509v3 Extended Key Usage: 
                TLS Web Client Authentication
            X509v3 Subject Key Identifier: 
                13:6B:4B:FA:B3:A9:54:1E:28:4A:EA:E4:D0:2C:C4:E9:F2:90:F6:39
    Signature Algorithm: sha256WithRSAEncryption
    Signature Value:
        a4:9e:cc:1c:93:0f:a5:cb:11:2e:5f:2a:5a:21:c9:25:9e:1a:
        80:51:7b:58:a3:2a:eb:7a:8a:65:36:9a:ef:5a:05:3f:89:a9:
        a5:b4:a3:02:3c:65:36:0b:af:2a:7e:ea:10:d3:c8:38:a1:84:
        0b:d7:56:71:7e:cd:0a:70:de:be:d1:0d:14:e1:58:9b:23:77:
        b8:24:79:28:79:47:f7:c2:34:17:62:5b:3a:eb:69:db:d8:0c:
        60:d7:85:c3:bf:41:d8:12:33:4f:84:6a:65:68:12:cc:5c:91:
        eb:fc:d6:57:bc:7e:32:5e:ba:88:e8:e4:73:64:84:cf:d0:c1:
        37:f9:3e:6f:0a:00:b7:5f:75:f9:1c:5c:cf:93:44:f4:1f:3d:
        b9:66:52:0c:39:ff:72:01:09:14:76:9f:d0:4e:e1:8c:4e:04:
        41:93:9d:17:12:3f:1f:63:ff:d2:20:8d:57:c0:ec:3b:44:96:
        af:4a:e1:e5:38:15:02:6a:2d:8e:cb:3c:9b:b4:77:74:13:f3:
        fd:4c:be:7d:0d:e2:90:7f:4c:7f:b6:c7:f5:9d:26:f6:df:a1:
        68:c6:61:d3:01:da:1d:7d:03:6d:be:06:93:cb:48:1f:e4:81:
        12:d2:8c:0b:5f:93:09:29:53:0a:17:75:e5:30:fa:b5:7c:b6:
        46:b3:68:17:04:0c:8b:72:d9:82:12:5e:90:46:98:54:43:29:
        bb:73:e6:86:b8:f1:47:ec:24:62:aa:1b:2d:d1:35:01:e7:ab:
        bc:4d:81:04:20:93:07:65:40:39:ca:51:a3:6a:6b:43:82:2a:
        04:0b:2e:c2:f3:2c:33:dd:36:2c:a5:21:bf:19:e9:a2:b0:66:
        66:12:35:af:38:67:e0:0c:bb:c1:fa:06:2e:a1:fb:c0:ce:a7:
        a9:b5:63:87:3d:fd:cd:23:4a:28:02:cf:a3:94:f5:4b:ed:d2:
        fd:cb:e9:7a:d1:a7:6d:ec:8f:b7:40:2c:2c:1f:7b:fd:f4:fc:
        73:5d:c0:4c:24:a1:40:70:8d:3c:ad:2b:75:2c:b1:82:7b:c0:
        8c:3b:a8:fb:1a:64:c0:00:9c:79:aa:3b:21:e3:9b:f0:6a:a6:
        61:25:b7:a7:b1:22:d4:c9:e6:90:c8:e4:cf:11:d4:d9:fa:fd:
        06:9a:86:e9:ff:08:2b:24:77:e7:b0:b9:47:d5:da:7c:88:a1:
        0c:25:8d:06:de:40:ec:a4:63:32:2d:53:6d:2a:a3:fc:3e:31:
        00:0a:54:32:4c:83:fc:f8:42:e2:9f:c2:13:1d:8a:ae:70:bb:
        45:35:b6:92:a8:c6:2b:28:b2:de:46:09:6a:d2:2c:92:e1:0d:
        57:94:f8:2f:9d:cb:01:cb
-----BEGIN CERTIFICATE-----
MIIF1DCCA7ygAwIBAgIQH0dywGfS3fexQhf9GjtOZDANBgkqhkiG9w0BAQsFADBu
MQswCQYDVQQGEwJCUjESMBAGA1UECAwJU0FPIFBBVUxPMRIwEAYDVQQKDAlEb2Nr
IFRlY2gxFTATBgNVBAsMDEFyY2hpdGVjdHVyZTEgMB4GA1UEAwwXUm9sZXMgQW55
d2hlcmUgVHJ1c3QgQ0EwHhcNMjUwOTIzMjM1NTI1WhcNMzUwOTIxMjM1NTI1WjBt
MQswCQYDVQQGEwJCUjESMBAGA1UECAwJU0FPIFBBVUxPMRIwEAYDVQQKDAlEb2Nr
IFRlY2gxEjAQBgNVBAsMCUNsaWVudC0wMTEiMCAGA1UEAwwZb24tcHJlbWlzc2Ut
bG9jYWwtbWFjaGluZTCCAiIwDQYJKoZIhvcNAQEBBQADggIPADCCAgoCggIBAOlY
Z7kpzJpLLu8Jo/E7X4zjLK24cEKbQwqA9G3HrXEPUBEGlrokFPra2C9S3bM/rNwK
67Mlp4cIwJzg5phCjKVenHQ8hhs/Aa/mF+xR+VoXbQRVjkeKeQXjAbcJlOJnTjY7
iWNespjZXGU1feI/OrPEKSsBqRpaepK5U9qQkWxqbVWeinZczk+NKCYUJRKQ0PNp
E06S32/9Bkn5qMMd8kSApb/6RkAv5VD6VYkRoOzyKWuy44Q3O0H65RQV/xolWWLx
ZOWGfpYq4HM8ya6U8vwXFljcMmsSu3F1yO86IyBlv9OlAtt4/iqgjAuPh31yENqP
hl9ALrVijPYZLFVTGpi94n+AEkdhP0b24k3XAvafdxakgei2gZAAV3+UGfszolRT
kWHSbw+9tG2s9j2WNM9TcXNg74fqOY9967+hkL6Db0TNRjflX3BtnwpZMkay+0XP
ZzWczmT7rH/MmTkFvb9xLtIALllCtovImMXhSd7UBRD2zvahIMfnZ7BYIdBvUwc/
qG2i1td9lt/AuvTRkLVpy4O193xLmt9M1PgAWcZnxBr5oJ4NguPv1oQ6SPNbnLr+
zyckXhEKt1WmHpH3pkT0UVA4Odx28X634/dE4DrurYOShZcTqiA61YxTSSpOJ0YI
KVIW4KZXyDUQj+AOfmKWeA0OM2c2YquKkXuMZ2E7AgMBAAGjbzBtMAkGA1UdEwQC
MAAwCwYDVR0PBAQDAgTwMB8GA1UdIwQYMBaAFAl5HN/r/F467ckE9mztJ9c33r19
MBMGA1UdJQQMMAoGCCsGAQUFBwMCMB0GA1UdDgQWBBQTa0v6s6lUHihK6uTQLMTp
8pD2OTANBgkqhkiG9w0BAQsFAAOCAgEApJ7MHJMPpcsRLl8qWiHJJZ4agFF7WKMq
63qKZTaa71oFP4mppbSjAjxlNguvKn7qENPIOKGEC9dWcX7NCnDevtENFOFYmyN3
uCR5KHlH98I0F2JbOutp29gMYNeFw79B2BIzT4RqZWgSzFyR6/zWV7x+Ml66iOjk
c2SEz9DBN/k+bwoAt191+Rxcz5NE9B89uWZSDDn/cgEJFHaf0E7hjE4EQZOdFxI/
H2P/0iCNV8DsO0SWr0rh5TgVAmotjss8m7R3dBPz/Uy+fQ3ikH9Mf7bH9Z0m9t+h
aMZh0wHaHX0Dbb4Gk8tIH+SBEtKMC1+TCSlTChd15TD6tXy2RrNoFwQMi3LZghJe
kEaYVEMpu3PmhrjxR+wkYqobLdE1AeervE2BBCCTB2VAOcpRo2prQ4IqBAsuwvMs
M902LKUhvxnporBmZhI1rzhn4Ay7wfoGLqH7wM6nqbVjhz39zSNKKALPo5T1S+3S
/cvpetGnbeyPt0AsLB97/fT8c13ATCShQHCNPK0rdSyxgnvAjDuo+xpkwACceao7
IeOb8GqmYSW3p7Ei1MnmkMjkzxHU2fr9BpqG6f8IKyR357C5R9XafIihDCWNBt5A
7KRjMi1TbSqj/D4xAApUMkyD/PhC4p/CEx2KrnC7RTW2kqjGKyiy3kYJatIskuEN
V5T4L53LAcs=
-----END CERTIFICATE-----
