Certificate:
    Data:
        Version: 3 (0x2)
        Serial Number:
            1f:47:72:c0:67:d2:dd:f7:b1:42:17:fd:1a:3b:4e:62
        Signature Algorithm: sha256WithRSAEncryption
        Issuer: C=BR, ST=SAO PAULO, O=Dock Tech, OU=Architecture, CN=Roles Anywhere Trust CA
        Validity
            Not Before: Sep 23 23:05:37 2025 GMT
            Not After : Sep 21 23:05:37 2035 GMT
        Subject: C=BR, ST=SAO PAULO, O=Dock Tech, OU=Architecture, CN=Roles Anywhere Trust CA
        Subject Public Key Info:
            Public Key Algorithm: rsaEncryption
                Public-Key: (4096 bit)
                Modulus:
                    00:b7:10:11:06:7e:02:17:dc:a4:44:75:3f:9d:08:
                    90:c4:97:14:2c:b1:68:cd:eb:94:ff:9d:77:9b:ed:
                    36:63:82:ac:aa:6d:7b:c8:b8:59:8e:3e:5c:ce:39:
                    c3:08:69:46:4a:f1:07:13:c6:60:da:9c:01:ef:ae:
                    cc:fb:7c:24:71:63:2f:be:b9:6e:43:6f:6b:0a:2f:
                    5a:35:7c:12:9e:61:2a:2e:aa:87:0a:ee:79:fe:17:
                    42:9c:f9:8e:af:ad:71:e1:fd:cc:21:9d:7a:91:2b:
                    b1:b4:4e:5e:1c:41:ae:04:e7:48:1a:06:79:7e:ee:
                    b6:55:3c:49:4f:63:cc:c0:f3:e5:8e:60:92:64:6f:
                    54:15:aa:89:ea:a4:f0:6c:83:69:6e:7c:17:4d:0c:
                    74:09:9b:f9:01:11:20:8b:83:98:1f:38:23:5d:42:
                    32:36:43:1f:bc:8b:44:93:2d:8b:f9:10:75:2f:cf:
                    9e:66:f6:8c:ae:8e:7e:4c:98:67:02:f0:13:f1:19:
                    83:5d:9e:da:1e:8a:7b:41:41:54:d5:a0:6c:e9:4e:
                    2f:cc:d7:e1:c1:75:d2:b0:1e:34:de:29:d4:77:e8:
                    87:02:8a:82:2c:63:ef:eb:89:b5:58:48:5f:6d:72:
                    8e:0e:57:a3:79:28:f5:b8:ad:25:9d:28:11:ba:30:
                    9a:c5:9b:8d:25:98:f1:95:83:ed:ec:ad:76:dc:5a:
                    02:64:32:74:8b:38:72:62:06:c7:0e:f9:1f:92:9f:
                    6b:d1:75:7e:56:4a:b7:29:3b:b5:5a:e2:d4:0c:1d:
                    42:b1:7b:ac:b5:08:aa:a1:3e:c5:80:0d:b2:0e:37:
                    31:1e:d4:9c:c8:b7:cc:4c:42:33:be:f0:2c:33:43:
                    1b:74:ca:97:b1:96:bc:97:ac:3b:e2:c1:be:71:5f:
                    05:3b:8e:37:d1:4b:4f:4f:8e:c9:e7:3d:63:db:21:
                    02:e9:ed:80:30:99:87:61:68:d4:c3:4e:f1:6c:ea:
                    ff:2f:dc:86:da:73:11:b7:3e:ab:93:e4:51:9f:f7:
                    7e:e4:37:10:eb:38:b3:9d:82:d7:9b:e2:56:0f:0c:
                    94:0f:f1:4e:4f:a3:62:51:60:57:ff:c4:ef:ff:0a:
                    aa:c8:79:9c:23:7e:d2:76:71:6d:95:78:c1:4d:13:
                    d0:f5:d5:0f:8b:41:64:f1:e7:2c:16:a9:13:e3:c0:
                    87:26:80:83:9c:d6:e3:cf:bd:da:58:ec:e0:ae:35:
                    96:e2:02:60:ae:46:07:a3:48:fc:36:14:1a:e8:70:
                    7e:cb:7f:d9:9e:3e:89:81:75:c0:2e:84:24:ed:ab:
                    d4:bb:b5:8a:99:06:6d:ae:7c:23:ab:36:64:30:11:
                    09:4a:67
                Exponent: 65537 (0x10001)
        X509v3 extensions:
            X509v3 Basic Constraints: critical
                CA:TRUE
            X509v3 Key Usage: critical
                Certificate Sign
            X509v3 Subject Key Identifier: 
                09:79:1C:DF:EB:FC:5E:3A:ED:C9:04:F6:6C:ED:27:D7:37:DE:BD:7D
    Signature Algorithm: sha256WithRSAEncryption
    Signature Value:
        65:0a:16:70:b6:4f:ab:0b:2e:1e:a2:a5:b2:5d:52:e2:d3:42:
        14:32:93:56:09:1c:18:10:6c:62:cc:6a:c5:af:97:1d:3b:d1:
        c3:cd:f8:b3:97:b5:96:65:cd:c8:50:4d:36:6e:6b:47:b3:3a:
        8c:cf:d4:ab:85:41:fa:db:82:15:a7:fd:a0:19:46:4c:29:75:
        8c:20:18:0b:a2:c0:ec:62:70:65:0b:db:52:b2:6b:e6:bb:16:
        0a:e6:28:35:ba:06:d3:f2:be:c8:f8:0e:01:2c:2e:a3:e1:e8:
        2c:6c:c8:3c:cd:c2:54:dc:91:1d:d8:b0:f3:53:27:f9:69:8d:
        b6:aa:c6:3e:f8:a5:6b:3e:0d:f6:78:ba:12:82:76:f5:a9:45:
        7a:fd:b5:a5:9c:d7:3a:85:14:00:e6:97:e2:71:d0:a3:34:22:
        81:36:24:c2:95:cb:57:cc:f4:a8:b7:4f:b5:1d:d8:88:23:9c:
        8d:64:97:f9:e5:6a:87:4d:0b:96:d9:9b:64:e4:c2:7c:9b:ef:
        0d:91:f0:72:06:f5:b7:06:01:f0:05:52:70:5e:3b:d3:33:31:
        e9:c8:f2:10:27:6f:18:24:a9:95:2b:0b:98:b5:a9:87:37:bb:
        ec:ba:12:58:7a:4f:f0:cb:3d:a9:0e:17:c3:8d:d1:56:26:00:
        b8:44:d0:6b:8e:2a:79:31:b8:70:db:d5:64:c0:b7:7b:60:ad:
        0f:7b:f8:f3:fe:b4:6b:72:10:be:85:54:b1:c2:ed:4a:a0:7f:
        85:8f:11:04:5e:51:2e:e3:a2:c9:e5:4c:4b:f2:27:9c:54:a3:
        e3:7f:d9:8b:54:ec:4a:19:8f:d6:d2:a2:2e:1e:e7:0f:b5:b0:
        a6:b4:5b:3e:98:ca:4b:7d:30:fd:73:93:79:4f:6f:09:5d:c5:
        45:9b:0a:e4:45:4a:45:48:56:fd:f0:52:eb:60:29:29:64:bd:
        bf:7e:3c:1c:67:af:a2:f3:9b:c2:8d:50:ca:59:d6:6a:f6:d2:
        f3:7e:08:9f:6a:47:ba:2b:9d:13:0c:c4:50:dc:5b:19:18:1e:
        1e:73:69:80:e3:42:ab:e7:2e:be:b3:30:cf:55:13:f2:0c:81:
        58:df:54:bf:7e:51:04:2a:46:79:74:b7:81:ca:fc:24:6a:c7:
        51:9b:47:01:a4:d9:49:aa:70:dc:0e:7a:12:c8:e9:9c:b4:86:
        20:40:75:b0:6f:d7:72:79:5a:5a:e1:d0:02:a2:f8:38:4f:54:
        22:d0:27:be:aa:e6:a6:78:09:3b:8b:80:88:61:5f:e7:ba:5f:
        b5:dd:94:3f:14:4b:35:60:b3:8f:30:1d:34:0b:88:19:4f:a7:
        d1:6d:53:4f:eb:e8:86:c1
-----BEGIN CERTIFICATE-----
MIIFqDCCA5CgAwIBAgIQH0dywGfS3fexQhf9GjtOYjANBgkqhkiG9w0BAQsFADBu
MQswCQYDVQQGEwJCUjESMBAGA1UECAwJU0FPIFBBVUxPMRIwEAYDVQQKDAlEb2Nr
IFRlY2gxFTATBgNVBAsMDEFyY2hpdGVjdHVyZTEgMB4GA1UEAwwXUm9sZXMgQW55
d2hlcmUgVHJ1c3QgQ0EwHhcNMjUwOTIzMjMwNTM3WhcNMzUwOTIxMjMwNTM3WjBu
MQswCQYDVQQGEwJCUjESMBAGA1UECAwJU0FPIFBBVUxPMRIwEAYDVQQKDAlEb2Nr
IFRlY2gxFTATBgNVBAsMDEFyY2hpdGVjdHVyZTEgMB4GA1UEAwwXUm9sZXMgQW55
d2hlcmUgVHJ1c3QgQ0EwggIiMA0GCSqGSIb3DQEBAQUAA4ICDwAwggIKAoICAQC3
EBEGfgIX3KREdT+dCJDElxQssWjN65T/nXeb7TZjgqyqbXvIuFmOPlzOOcMIaUZK
8QcTxmDanAHvrsz7fCRxYy++uW5Db2sKL1o1fBKeYSouqocK7nn+F0Kc+Y6vrXHh
/cwhnXqRK7G0Tl4cQa4E50gaBnl+7rZVPElPY8zA8+WOYJJkb1QVqonqpPBsg2lu
fBdNDHQJm/kBESCLg5gfOCNdQjI2Qx+8i0STLYv5EHUvz55m9oyujn5MmGcC8BPx
GYNdntoeintBQVTVoGzpTi/M1+HBddKwHjTeKdR36IcCioIsY+/ribVYSF9tco4O
V6N5KPW4rSWdKBG6MJrFm40lmPGVg+3srXbcWgJkMnSLOHJiBscO+R+Sn2vRdX5W
SrcpO7Va4tQMHUKxe6y1CKqhPsWADbIONzEe1JzIt8xMQjO+8CwzQxt0ypexlryX
rDviwb5xXwU7jjfRS09PjsnnPWPbIQLp7YAwmYdhaNTDTvFs6v8v3IbacxG3PquT
5FGf937kNxDrOLOdgteb4lYPDJQP8U5Po2JRYFf/xO//CqrIeZwjftJ2cW2VeMFN
E9D11Q+LQWTx5ywWqRPjwIcmgIOc1uPPvdpY7OCuNZbiAmCuRgejSPw2FBrocH7L
f9mePomBdcAuhCTtq9S7tYqZBm2ufCOrNmQwEQlKZwIDAQABo0IwQDAPBgNVHRMB
Af8EBTADAQH/MA4GA1UdDwEB/wQEAwICBDAdBgNVHQ4EFgQUCXkc3+v8XjrtyQT2
bO0n1zfevX0wDQYJKoZIhvcNAQELBQADggIBAGUKFnC2T6sLLh6ipbJdUuLTQhQy
k1YJHBgQbGLMasWvlx070cPN+LOXtZZlzchQTTZua0ezOozP1KuFQfrbghWn/aAZ
RkwpdYwgGAuiwOxicGUL21Kya+a7FgrmKDW6BtPyvsj4DgEsLqPh6CxsyDzNwlTc
kR3YsPNTJ/lpjbaqxj74pWs+DfZ4uhKCdvWpRXr9taWc1zqFFADml+Jx0KM0IoE2
JMKVy1fM9Ki3T7Ud2IgjnI1kl/nlaodNC5bZm2Tkwnyb7w2R8HIG9bcGAfAFUnBe
O9MzMenI8hAnbxgkqZUrC5i1qYc3u+y6Elh6T/DLPakOF8ON0VYmALhE0GuOKnkx
uHDb1WTAt3tgrQ97+PP+tGtyEL6FVLHC7Uqgf4WPEQReUS7josnlTEvyJ5xUo+N/
2YtU7EoZj9bSoi4e5w+1sKa0Wz6Yykt9MP1zk3lPbwldxUWbCuRFSkVIVv3wUutg
KSlkvb9+PBxnr6Lzm8KNUMpZ1mr20vN+CJ9qR7ornRMMxFDcWxkYHh5zaYDjQqvn
Lr6zMM9VE/IMgVjfVL9+UQQqRnl0t4HK/CRqx1GbRwGk2UmqcNwOehLI6Zy0hiBA
dbBv13J5Wlrh0AKi+DhPVCLQJ76q5qZ4CTuLgIhhX+e6X7XdlD8USzVgs48wHTQL
iBlPp9FtU0/r6IbB
-----END CERTIFICATE-----
